target datalayout = "e-m:e-p270:32:32-p271:32:32-p272:64:64-i64:64-i128:128-f80:128-n8:16:32:64-S128"
target triple = "x86_64-pc-linux-gnu"

%struct.Vec_Ptr_t_ = type { i32, i32, ptr }

@Bac_ManCollectGateNamesByTruth.uTruths6 = internal global [3 x i64] [i64 -6148914691236517206, i64 -3689348814741910324, i64 -1085102592571150096], align 16

; Function Attrs: nounwind uwtable
define internal void @Vec_PtrWriteEntry(ptr noundef %0, i32 noundef %1, ptr noundef %2) #0 {
  %4 = alloca ptr, align 8
  %5 = alloca i32, align 4
  %6 = alloca ptr, align 8
  store ptr %0, ptr %4, align 8
  store i32 %1, ptr %5, align 4
  store ptr %2, ptr %6, align 8
  %7 = load ptr, ptr %6, align 8
  %8 = load ptr, ptr %4, align 8
  %9 = getelementptr inbounds %struct.Vec_Ptr_t_, ptr %8, i32 0, i32 2
  %10 = load ptr, ptr %9, align 8
  %11 = load i32, ptr %5, align 4
  %12 = sext i32 %11 to i64
  %13 = getelementptr inbounds ptr, ptr %10, i64 %12
  store ptr %7, ptr %13, align 8
  ret void
}

; Function Attrs: nounwind uwtable
define internal ptr @Vec_PtrAlloc(i32 noundef %0) #0 {
  %2 = alloca i32, align 4
  %3 = alloca ptr, align 8
  store i32 %0, ptr %2, align 4
  %4 = call noalias ptr @malloc(i64 noundef 16) #11
  store ptr %4, ptr %3, align 8
  %5 = load i32, ptr %2, align 4
  %6 = icmp sgt i32 %5, 0
  br i1 %6, label %7, label %11

7:                                                ; preds = %1
  %8 = load i32, ptr %2, align 4
  %9 = icmp slt i32 %8, 8
  br i1 %9, label %10, label %11

10:                                               ; preds = %7
  store i32 8, ptr %2, align 4
  br label %11

11:                                               ; preds = %10, %7, %1
  %12 = load ptr, ptr %3, align 8
  %13 = getelementptr inbounds %struct.Vec_Ptr_t_, ptr %12, i32 0, i32 1
  store i32 0, ptr %13, align 4
  %14 = load i32, ptr %2, align 4
  %15 = load ptr, ptr %3, align 8
  %16 = getelementptr inbounds %struct.Vec_Ptr_t_, ptr %15, i32 0, i32 0
  store i32 %14, ptr %16, align 8
  %17 = load ptr, ptr %3, align 8
  %18 = getelementptr inbounds %struct.Vec_Ptr_t_, ptr %17, i32 0, i32 0
  %19 = load i32, ptr %18, align 8
  %20 = icmp ne i32 %19, 0
  br i1 %20, label %21, label %28

21:                                               ; preds = %11
  %22 = load ptr, ptr %3, align 8
  %23 = getelementptr inbounds %struct.Vec_Ptr_t_, ptr %22, i32 0, i32 0
  %24 = load i32, ptr %23, align 8
  %25 = sext i32 %24 to i64
  %26 = mul i64 8, %25
  %27 = call noalias ptr @malloc(i64 noundef %26) #11
  br label %29

28:                                               ; preds = %11
  br label %29

29:                                               ; preds = %28, %21
  %30 = phi ptr [ %27, %21 ], [ null, %28 ]
  %31 = load ptr, ptr %3, align 8
  %32 = getelementptr inbounds %struct.Vec_Ptr_t_, ptr %31, i32 0, i32 2
  store ptr %30, ptr %32, align 8
  %33 = load ptr, ptr %3, align 8
  ret ptr %33
}

; Function Attrs: nounwind uwtable
define void @Bac_ManCollectGateNameOne(ptr noundef %0, i32 noundef %1, i64 noundef %2, ptr noundef %3) #0 {
  %5 = alloca ptr, align 8
  %6 = alloca i32, align 4
  %7 = alloca i64, align 8
  %8 = alloca ptr, align 8
  %9 = alloca ptr, align 8
  store ptr %0, ptr %5, align 8
  store i32 %1, ptr %6, align 4
  store i64 %2, ptr %7, align 8
  store ptr %3, ptr %8, align 8
  %10 = load ptr, ptr %5, align 8
  %11 = load i64, ptr %7, align 8
  %12 = call ptr @Mio_LibraryReadGateByTruth(ptr noundef %10, i64 noundef %11)
  store ptr %12, ptr %9, align 8
  %13 = load ptr, ptr %9, align 8
  %14 = icmp ne ptr %13, null
  br i1 %14, label %15, label %20

15:                                               ; preds = %4
  %16 = load ptr, ptr %8, align 8
  %17 = load i32, ptr %6, align 4
  %18 = load ptr, ptr %9, align 8
  %19 = call ptr @Mio_GateReadName(ptr noundef %18)
  call void @Vec_PtrWriteEntry(ptr noundef %16, i32 noundef %17, ptr noundef %19)
  br label %20

20:                                               ; preds = %15, %4
  ret void
}

; Function Attrs: nounwind uwtable
define internal ptr @Vec_PtrStart(i32 noundef %0) #0 {
  %2 = alloca i32, align 4
  %3 = alloca ptr, align 8
  store i32 %0, ptr %2, align 4
  %4 = load i32, ptr %2, align 4
  %5 = call ptr @Vec_PtrAlloc(i32 noundef %4)
  store ptr %5, ptr %3, align 8
  %6 = load i32, ptr %2, align 4
  %7 = load ptr, ptr %3, align 8
  %8 = getelementptr inbounds %struct.Vec_Ptr_t_, ptr %7, i32 0, i32 1
  store i32 %6, ptr %8, align 4
  %9 = load ptr, ptr %3, align 8
  %10 = getelementptr inbounds %struct.Vec_Ptr_t_, ptr %9, i32 0, i32 2
  %11 = load ptr, ptr %10, align 8
  %12 = load i32, ptr %2, align 4
  %13 = sext i32 %12 to i64
  %14 = mul i64 8, %13
  call void @llvm.memset.p0.i64(ptr align 8 %11, i8 0, i64 %14, i1 false)
  %15 = load ptr, ptr %3, align 8
  ret ptr %15
}

; Function Attrs: nounwind uwtable
define ptr @Bac_ManCollectGateNamesByTruth(ptr noundef %0) #0 {
  %2 = alloca ptr, align 8
  %3 = alloca ptr, align 8
  store ptr %0, ptr %2, align 8
  %4 = call ptr @Vec_PtrStart(i32 noundef 11)
  store ptr %4, ptr %3, align 8
  %5 = load ptr, ptr %2, align 8
  %6 = load ptr, ptr %3, align 8
  call void @Bac_ManCollectGateNameOne(ptr noundef %5, i32 noundef 1, i64 noundef 0, ptr noundef %6)
  %7 = load ptr, ptr %2, align 8
  %8 = load ptr, ptr %3, align 8
  call void @Bac_ManCollectGateNameOne(ptr noundef %7, i32 noundef 2, i64 noundef -1, ptr noundef %8)
  %9 = load ptr, ptr %2, align 8
  %10 = load i64, ptr @Bac_ManCollectGateNamesByTruth.uTruths6, align 16
  %11 = load ptr, ptr %3, align 8
  call void @Bac_ManCollectGateNameOne(ptr noundef %9, i32 noundef 3, i64 noundef %10, ptr noundef %11)
  %12 = load ptr, ptr %2, align 8
  %13 = load i64, ptr @Bac_ManCollectGateNamesByTruth.uTruths6, align 16
  %14 = xor i64 %13, -1
  %15 = load ptr, ptr %3, align 8
  call void @Bac_ManCollectGateNameOne(ptr noundef %12, i32 noundef 4, i64 noundef %14, ptr noundef %15)
  %16 = load ptr, ptr %2, align 8
  %17 = load i64, ptr @Bac_ManCollectGateNamesByTruth.uTruths6, align 16
  %18 = getelementptr inbounds [3 x i64], ptr @Bac_ManCollectGateNamesByTruth.uTruths6, i64 0, i64 1
  %19 = load i64, ptr %18, align 8
  %20 = and i64 %17, %19
  %21 = load ptr, ptr %3, align 8
  call void @Bac_ManCollectGateNameOne(ptr noundef %16, i32 noundef 5, i64 noundef %20, ptr noundef %21)
  %22 = load ptr, ptr %2, align 8
  %23 = load i64, ptr @Bac_ManCollectGateNamesByTruth.uTruths6, align 16
  %24 = getelementptr inbounds [3 x i64], ptr @Bac_ManCollectGateNamesByTruth.uTruths6, i64 0, i64 1
  %25 = load i64, ptr %24, align 8
  %26 = and i64 %23, %25
  %27 = xor i64 %26, -1
  %28 = load ptr, ptr %3, align 8
  call void @Bac_ManCollectGateNameOne(ptr noundef %22, i32 noundef 6, i64 noundef %27, ptr noundef %28)
  %29 = load ptr, ptr %2, align 8
  %30 = load i64, ptr @Bac_ManCollectGateNamesByTruth.uTruths6, align 16
  %31 = getelementptr inbounds [3 x i64], ptr @Bac_ManCollectGateNamesByTruth.uTruths6, i64 0, i64 1
  %32 = load i64, ptr %31, align 8
  %33 = or i64 %30, %32
  %34 = load ptr, ptr %3, align 8
  call void @Bac_ManCollectGateNameOne(ptr noundef %29, i32 noundef 7, i64 noundef %33, ptr noundef %34)
  %35 = load ptr, ptr %2, align 8
  %36 = load i64, ptr @Bac_ManCollectGateNamesByTruth.uTruths6, align 16
  %37 = getelementptr inbounds [3 x i64], ptr @Bac_ManCollectGateNamesByTruth.uTruths6, i64 0, i64 1
  %38 = load i64, ptr %37, align 8
  %39 = or i64 %36, %38
  %40 = xor i64 %39, -1
  %41 = load ptr, ptr %3, align 8
  call void @Bac_ManCollectGateNameOne(ptr noundef %35, i32 noundef 8, i64 noundef %40, ptr noundef %41)
  %42 = load ptr, ptr %2, align 8
  %43 = load i64, ptr @Bac_ManCollectGateNamesByTruth.uTruths6, align 16
  %44 = getelementptr inbounds [3 x i64], ptr @Bac_ManCollectGateNamesByTruth.uTruths6, i64 0, i64 1
  %45 = load i64, ptr %44, align 8
  %46 = xor i64 %43, %45
  %47 = load ptr, ptr %3, align 8
  call void @Bac_ManCollectGateNameOne(ptr noundef %42, i32 noundef 9, i64 noundef %46, ptr noundef %47)
  %48 = load ptr, ptr %2, align 8
  %49 = load i64, ptr @Bac_ManCollectGateNamesByTruth.uTruths6, align 16
  %50 = getelementptr inbounds [3 x i64], ptr @Bac_ManCollectGateNamesByTruth.uTruths6, i64 0, i64 1
  %51 = load i64, ptr %50, align 8
  %52 = xor i64 %49, %51
  %53 = xor i64 %52, -1
  %54 = load ptr, ptr %3, align 8
  call void @Bac_ManCollectGateNameOne(ptr noundef %48, i32 noundef 10, i64 noundef %53, ptr noundef %54)
  %55 = load ptr, ptr %3, align 8
  ret ptr %55
}