; Function Attrs: nounwind uwtable
define noalias noundef ptr @Bac_ManCollectGateNamesByTruth(ptr noundef %0) local_unnamed_addr #0 {
  %2 = tail call noalias dereferenceable_or_null(16) ptr @malloc(i64 noundef 16) #15
  %3 = getelementptr inbounds nuw i8, ptr %2, i64 4
  store i32 11, ptr %2, align 8
  %calloc.i = tail call dereferenceable_or_null(88) ptr @calloc(i64 1, i64 88)
  %4 = getelementptr inbounds nuw i8, ptr %2, i64 8
  store ptr %calloc.i, ptr %4, align 8
  store i32 11, ptr %3, align 4
  %5 = tail call ptr @Mio_LibraryReadGateByTruth(ptr noundef %0, i64 noundef 0) #14
  %.not.i = icmp eq ptr %5, null
  br i1 %.not.i, label %Bac_ManCollectGateNameOne.exit, label %6

6:                                                ; preds = %1
  %7 = tail call ptr @Mio_GateReadName(ptr noundef nonnull %5) #14
  %8 = getelementptr inbounds nuw i8, ptr %calloc.i, i64 8
  store ptr %7, ptr %8, align 8
  br label %Bac_ManCollectGateNameOne.exit

Bac_ManCollectGateNameOne.exit:                   ; preds = %1, %6
  %9 = tail call ptr @Mio_LibraryReadGateByTruth(ptr noundef %0, i64 noundef -1) #14
  %.not.i21 = icmp eq ptr %9, null
  br i1 %.not.i21, label %Bac_ManCollectGateNameOne.exit23, label %10

10:                                               ; preds = %Bac_ManCollectGateNameOne.exit
  %11 = tail call ptr @Mio_GateReadName(ptr noundef nonnull %9) #14
  %12 = getelementptr inbounds nuw i8, ptr %calloc.i, i64 16
  store ptr %11, ptr %12, align 8
  br label %Bac_ManCollectGateNameOne.exit23

Bac_ManCollectGateNameOne.exit23:                 ; preds = %Bac_ManCollectGateNameOne.exit, %10
  %13 = tail call ptr @Mio_LibraryReadGateByTruth(ptr noundef %0, i64 noundef -6148914691236517206) #14
  %.not.i24 = icmp eq ptr %13, null
  br i1 %.not.i24, label %Bac_ManCollectGateNameOne.exit26, label %14

14:                                               ; preds = %Bac_ManCollectGateNameOne.exit23
  %15 = tail call ptr @Mio_GateReadName(ptr noundef nonnull %13) #14
  %16 = getelementptr inbounds nuw i8, ptr %calloc.i, i64 24
  store ptr %15, ptr %16, align 8
  br label %Bac_ManCollectGateNameOne.exit26

Bac_ManCollectGateNameOne.exit26:                 ; preds = %Bac_ManCollectGateNameOne.exit23, %14
  %17 = tail call ptr @Mio_LibraryReadGateByTruth(ptr noundef %0, i64 noundef 6148914691236517205) #14
  %.not.i27 = icmp eq ptr %17, null
  br i1 %.not.i27, label %Bac_ManCollectGateNameOne.exit29, label %18

18:                                               ; preds = %Bac_ManCollectGateNameOne.exit26
  %19 = tail call ptr @Mio_GateReadName(ptr noundef nonnull %17) #14
  %20 = getelementptr inbounds nuw i8, ptr %calloc.i, i64 32
  store ptr %19, ptr %20, align 8
  br label %Bac_ManCollectGateNameOne.exit29

Bac_ManCollectGateNameOne.exit29:                 ; preds = %Bac_ManCollectGateNameOne.exit26, %18
  %21 = tail call ptr @Mio_LibraryReadGateByTruth(ptr noundef %0, i64 noundef -8608480567731124088) #14
  %.not.i30 = icmp eq ptr %21, null
  br i1 %.not.i30, label %Bac_ManCollectGateNameOne.exit32, label %22

22:                                               ; preds = %Bac_ManCollectGateNameOne.exit29
  %23 = tail call ptr @Mio_GateReadName(ptr noundef nonnull %21) #14
  %24 = getelementptr inbounds nuw i8, ptr %calloc.i, i64 40
  store ptr %23, ptr %24, align 8
  br label %Bac_ManCollectGateNameOne.exit32

Bac_ManCollectGateNameOne.exit32:                 ; preds = %Bac_ManCollectGateNameOne.exit29, %22
  %25 = tail call ptr @Mio_LibraryReadGateByTruth(ptr noundef %0, i64 noundef 8608480567731124087) #14
  %.not.i33 = icmp eq ptr %25, null
  br i1 %.not.i33, label %Bac_ManCollectGateNameOne.exit35, label %26

26:                                               ; preds = %Bac_ManCollectGateNameOne.exit32
  %27 = tail call ptr @Mio_GateReadName(ptr noundef nonnull %25) #14
  %28 = getelementptr inbounds nuw i8, ptr %calloc.i, i64 48
  store ptr %27, ptr %28, align 8
  br label %Bac_ManCollectGateNameOne.exit35

Bac_ManCollectGateNameOne.exit35:                 ; preds = %Bac_ManCollectGateNameOne.exit32, %26
  %29 = tail call ptr @Mio_LibraryReadGateByTruth(ptr noundef %0, i64 noundef -1229782938247303442) #14
  %.not.i36 = icmp eq ptr %29, null
  br i1 %.not.i36, label %Bac_ManCollectGateNameOne.exit38, label %30

30:                                               ; preds = %Bac_ManCollectGateNameOne.exit35
  %31 = tail call ptr @Mio_GateReadName(ptr noundef nonnull %29) #14
  %32 = getelementptr inbounds nuw i8, ptr %calloc.i, i64 56
  store ptr %31, ptr %32, align 8
  br label %Bac_ManCollectGateNameOne.exit38

Bac_ManCollectGateNameOne.exit38:                 ; preds = %Bac_ManCollectGateNameOne.exit35, %30
  %33 = tail call ptr @Mio_LibraryReadGateByTruth(ptr noundef %0, i64 noundef 1229782938247303441) #14
  %.not.i39 = icmp eq ptr %33, null
  br i1 %.not.i39, label %Bac_ManCollectGateNameOne.exit41, label %34

34:                                               ; preds = %Bac_ManCollectGateNameOne.exit38
  %35 = tail call ptr @Mio_GateReadName(ptr noundef nonnull %33) #14
  %36 = getelementptr inbounds nuw i8, ptr %calloc.i, i64 64
  store ptr %35, ptr %36, align 8
  br label %Bac_ManCollectGateNameOne.exit41

Bac_ManCollectGateNameOne.exit41:                 ; preds = %Bac_ManCollectGateNameOne.exit38, %34
  %37 = tail call ptr @Mio_LibraryReadGateByTruth(ptr noundef %0, i64 noundef 7378697629483820646) #14
  %.not.i42 = icmp eq ptr %37, null
  br i1 %.not.i42, label %Bac_ManCollectGateNameOne.exit44, label %38

38:                                               ; preds = %Bac_ManCollectGateNameOne.exit41
  %39 = tail call ptr @Mio_GateReadName(ptr noundef nonnull %37) #14
  %40 = getelementptr inbounds nuw i8, ptr %calloc.i, i64 72
  store ptr %39, ptr %40, align 8
  br label %Bac_ManCollectGateNameOne.exit44

Bac_ManCollectGateNameOne.exit44:                 ; preds = %Bac_ManCollectGateNameOne.exit41, %38
  %41 = tail call ptr @Mio_LibraryReadGateByTruth(ptr noundef %0, i64 noundef -7378697629483820647) #14
  %.not.i45 = icmp eq ptr %41, null
  br i1 %.not.i45, label %Bac_ManCollectGateNameOne.exit47, label %42

42:                                               ; preds = %Bac_ManCollectGateNameOne.exit44
  %43 = tail call ptr @Mio_GateReadName(ptr noundef nonnull %41) #14
  %44 = getelementptr inbounds nuw i8, ptr %calloc.i, i64 80
  store ptr %43, ptr %44, align 8
  br label %Bac_ManCollectGateNameOne.exit47

Bac_ManCollectGateNameOne.exit47:                 ; preds = %Bac_ManCollectGateNameOne.exit44, %42
  ret ptr %2
}